; Function Attrs: mustprogress uwtable
define void @_ZN17DisplayFilterEdit24createFilterTextDropMenuEP10QDropEventb7QString(ptr noundef nonnull align 8 dereferenceable(352) %0, ptr nocapture noundef readonly %1, i1 noundef zeroext %2, ptr nocapture noundef readonly %3) local_unnamed_addr #2 align 2 personality ptr @__gxx_personality_v0 {
  %5 = alloca %class.QString, align 8
  %6 = alloca %class.QPoint, align 8
  %7 = alloca %class.QPoint, align 8
  %8 = getelementptr inbounds i8, ptr %3, i64 16
  %9 = load i64, ptr %8, align 8
  %10 = icmp eq i64 %9, 0
  br i1 %10, label %34, label %11

11:                                               ; preds = %4
  %12 = select i1 %2, i32 4, i32 0
  %13 = load ptr, ptr %3, align 8
  store ptr %13, ptr %5, align 8
  %14 = getelementptr inbounds i8, ptr %5, i64 8
  %15 = getelementptr inbounds i8, ptr %3, i64 8
  %16 = load ptr, ptr %15, align 8
  store ptr %16, ptr %14, align 8
  %17 = getelementptr inbounds i8, ptr %5, i64 16
  store i64 %9, ptr %17, align 8
  %.not.i.i.i = icmp eq ptr %13, null
  br i1 %.not.i.i.i, label %_ZN7QStringC2ERKS_.exit, label %18

18:                                               ; preds = %11
  %19 = atomicrmw add ptr %13, i32 1 seq_cst, align 4
  br label %_ZN7QStringC2ERKS_.exit

_ZN7QStringC2ERKS_.exit:                          ; preds = %11, %18
  %20 = invoke noundef ptr @_ZN12FilterAction16createFilterMenuENS_6ActionE7QStringbP7QWidget(i32 noundef %12, ptr noundef nonnull %5, i1 noundef zeroext true, ptr noundef nonnull %0)
          to label %21 unwind label %35

21:                                               ; preds = %_ZN7QStringC2ERKS_.exit
  %22 = load ptr, ptr %5, align 8
  %.not.i.i.i7 = icmp eq ptr %22, null
  br i1 %.not.i.i.i7, label %_ZN7QStringD2Ev.exit, label %_ZN17QArrayDataPointerIDsE5derefEv.exit.i.i

_ZN17QArrayDataPointerIDsE5derefEv.exit.i.i:      ; preds = %21
  %23 = atomicrmw sub ptr %22, i32 1 seq_cst, align 4
  %.not.i.i = icmp eq i32 %23, 1
  br i1 %.not.i.i, label %24, label %_ZN7QStringD2Ev.exit

24:                                               ; preds = %_ZN17QArrayDataPointerIDsE5derefEv.exit.i.i
  %25 = load ptr, ptr %5, align 8
  call void @_ZN10QArrayData10deallocateEPS_xx(ptr noundef %25, i64 noundef 2, i64 noundef 8) #19
  br label %_ZN7QStringD2Ev.exit

_ZN7QStringD2Ev.exit:                             ; preds = %21, %_ZN17QArrayDataPointerIDsE5derefEv.exit.i.i, %24
  call void @_ZN7QWidget12setAttributeEN2Qt15WidgetAttributeEb(ptr noundef nonnull align 8 dereferenceable(40) %20, i32 noundef 55, i1 noundef zeroext true)
  %26 = getelementptr inbounds i8, ptr %1, i64 16
  %.sroa.0.0.copyload.i = load double, ptr %26, align 8
  %.sroa.2.0..sroa_idx.i = getelementptr inbounds i8, ptr %1, i64 24
  %.sroa.2.0.copyload.i = load double, ptr %.sroa.2.0..sroa_idx.i, align 8
  %27 = call double @llvm.copysign.f64(double 5.000000e-01, double %.sroa.0.0.copyload.i)
  %28 = fadd double %.sroa.0.0.copyload.i, %27
  %29 = fptosi double %28 to i32
  %30 = call double @llvm.copysign.f64(double 5.000000e-01, double %.sroa.2.0.copyload.i)
  %31 = fadd double %.sroa.2.0.copyload.i, %30
  %32 = fptosi double %31 to i32
  %.sroa.2.0.insert.ext.i = zext i32 %32 to i64
  %.sroa.2.0.insert.shift.i = shl nuw i64 %.sroa.2.0.insert.ext.i, 32
  %.sroa.0.0.insert.ext.i = zext i32 %29 to i64
  %.sroa.0.0.insert.insert.i = or disjoint i64 %.sroa.2.0.insert.shift.i, %.sroa.0.0.insert.ext.i
  store i64 %.sroa.0.0.insert.insert.i, ptr %7, align 8
  %33 = call i64 @_ZNK7QWidget11mapToGlobalERK6QPoint(ptr noundef nonnull align 8 dereferenceable(40) %0, ptr noundef nonnull align 4 dereferenceable(8) %7)
  store i64 %33, ptr %6, align 8
  call void @_ZN5QMenu5popupERK6QPointP7QAction(ptr noundef nonnull align 8 dereferenceable(40) %20, ptr noundef nonnull align 4 dereferenceable(8) %6, ptr noundef null)
  br label %34

34:                                               ; preds = %4, %_ZN7QStringD2Ev.exit
  ret void

35:                                               ; preds = %_ZN7QStringC2ERKS_.exit
  %36 = landingpad { ptr, i32 }
          cleanup
  %37 = load ptr, ptr %5, align 8
  %.not.i.i.i8 = icmp eq ptr %37, null
  br i1 %.not.i.i.i8, label %_ZN7QStringD2Ev.exit11, label %_ZN17QArrayDataPointerIDsE5derefEv.exit.i.i9

_ZN17QArrayDataPointerIDsE5derefEv.exit.i.i9:     ; preds = %35
  %38 = atomicrmw sub ptr %37, i32 1 seq_cst, align 4
  %.not.i.i10 = icmp eq i32 %38, 1
  br i1 %.not.i.i10, label %39, label %_ZN7QStringD2Ev.exit11

39:                                               ; preds = %_ZN17QArrayDataPointerIDsE5derefEv.exit.i.i9
  %40 = load ptr, ptr %5, align 8
  call void @_ZN10QArrayData10deallocateEPS_xx(ptr noundef %40, i64 noundef 2, i64 noundef 8) #19
  br label %_ZN7QStringD2Ev.exit11

_ZN7QStringD2Ev.exit11:                           ; preds = %35, %_ZN17QArrayDataPointerIDsE5derefEv.exit.i.i9, %39
  resume { ptr, i32 } %36
}